; ModuleID = '60/57.c'
source_filename = "60/57.c"
target datalayout = "e-m:e-p270:32:32-p271:32:32-p272:64:64-i64:64-f80:128-n8:16:32:64-S128"
target triple = "x86_64-pc-linux-gnu"

@.str = private unnamed_addr constant [3 x i8] c"%d\00", align 1
@.str.1 = private unnamed_addr constant [6 x i8] c"empty\00", align 1
@.str.2 = private unnamed_addr constant [5 x i8] c"3 5\0A\00", align 1
@.str.3 = private unnamed_addr constant [7 x i8] c"%d %d\0A\00", align 1

; Function Attrs: noinline nounwind uwtable
define dso_local void @main() #0 {
  %1 = alloca i32, align 4
  %2 = alloca i32, align 4
  %3 = alloca i32, align 4
  %4 = alloca i32, align 4
  %5 = call i32 (i8*, ...) @__isoc99_scanf(i8* getelementptr inbounds ([3 x i8], [3 x i8]* @.str, i64 0, i64 0), i32* %4)
  %6 = load i32, i32* %4, align 4
  %7 = icmp slt i32 %6, 5
  br i1 %7, label %8, label %10

8:                                                ; preds = %0
  %9 = call i32 (i8*, ...) @printf(i8* getelementptr inbounds ([6 x i8], [6 x i8]* @.str.1, i64 0, i64 0))
  br label %72

10:                                               ; preds = %0
  %11 = load i32, i32* %4, align 4
  %12 = icmp sge i32 %11, 5
  br i1 %12, label %13, label %71

13:                                               ; preds = %10
  %14 = call i32 (i8*, ...) @printf(i8* getelementptr inbounds ([5 x i8], [5 x i8]* @.str.2, i64 0, i64 0))
  store i32 7, i32* %1, align 4
  br label %15

15:                                               ; preds = %67, %13
  %16 = load i32, i32* %1, align 4
  %17 = load i32, i32* %4, align 4
  %18 = icmp slt i32 %16, %17
  br i1 %18, label %19, label %70

19:                                               ; preds = %15
  store i32 2, i32* %2, align 4
  br label %20

20:                                               ; preds = %31, %19
  %21 = load i32, i32* %2, align 4
  %22 = load i32, i32* %1, align 4
  %23 = icmp slt i32 %21, %22
  br i1 %23, label %24, label %34

24:                                               ; preds = %20
  %25 = load i32, i32* %1, align 4
  %26 = load i32, i32* %2, align 4
  %27 = srem i32 %25, %26
  %28 = icmp eq i32 %27, 0
  br i1 %28, label %29, label %30

29:                                               ; preds = %24
  br label %34

30:                                               ; preds = %24
  br label %31

31:                                               ; preds = %30
  %32 = load i32, i32* %2, align 4
  %33 = add nsw i32 %32, 1
  store i32 %33, i32* %2, align 4
  br label %20

34:                                               ; preds = %29, %20
  %35 = load i32, i32* %2, align 4
  %36 = load i32, i32* %1, align 4
  %37 = icmp eq i32 %35, %36
  br i1 %37, label %38, label %66

38:                                               ; preds = %34
  store i32 2, i32* %3, align 4
  br label %39

39:                                               ; preds = %52, %38
  %40 = load i32, i32* %3, align 4
  %41 = load i32, i32* %1, align 4
  %42 = sub nsw i32 %41, 2
  %43 = icmp slt i32 %40, %42
  br i1 %43, label %44, label %55

44:                                               ; preds = %39
  %45 = load i32, i32* %1, align 4
  %46 = sub nsw i32 %45, 2
  %47 = load i32, i32* %3, align 4
  %48 = srem i32 %46, %47
  %49 = icmp eq i32 %48, 0
  br i1 %49, label %50, label %51

50:                                               ; preds = %44
  br label %55

51:                                               ; preds = %44
  br label %52

52:                                               ; preds = %51
  %53 = load i32, i32* %3, align 4
  %54 = add nsw i32 %53, 1
  store i32 %54, i32* %3, align 4
  br label %39

55:                                               ; preds = %50, %39
  %56 = load i32, i32* %3, align 4
  %57 = load i32, i32* %1, align 4
  %58 = sub nsw i32 %57, 2
  %59 = icmp eq i32 %56, %58
  br i1 %59, label %60, label %65

60:                                               ; preds = %55
  %61 = load i32, i32* %1, align 4
  %62 = sub nsw i32 %61, 2
  %63 = load i32, i32* %1, align 4
  %64 = call i32 (i8*, ...) @printf(i8* getelementptr inbounds ([7 x i8], [7 x i8]* @.str.3, i64 0, i64 0), i32 %62, i32 %63)
  br label %65

65:                                               ; preds = %60, %55
  br label %66

66:                                               ; preds = %65, %34
  br label %67

67:                                               ; preds = %66
  %68 = load i32, i32* %1, align 4
  %69 = add nsw i32 %68, 2
  store i32 %69, i32* %1, align 4
  br label %15

70:                                               ; preds = %15
  br label %71

71:                                               ; preds = %70, %10
  br label %72

72:                                               ; preds = %71, %8
  ret void
}

declare dso_local i32 @__isoc99_scanf(i8*, ...) #1

declare dso_local i32 @printf(i8*, ...) #1


!llvm.module.flags = !{!0}
!llvm.ident = !{!1}

!0 = !{i32 1, !"wchar_size", i32 4}
!1 = !{!"clang version 10.0.0-4ubuntu1 "}
